; Function Attrs: mustprogress nofree nounwind willreturn memory(readwrite, inaccessiblemem: write) uwtable
define noundef double @_ZN8QuantLib16GFunctionFactory19GFunctionWithShifts9functionZEd(ptr nocapture noundef nonnull readonly align 8 dereferenceable(176) %this, double noundef %x) local_unnamed_addr #22 align 2 {
entry:
  %shapedPaymentTime_ = getelementptr inbounds nuw i8, ptr %this, i64 16
  %0 = load double, ptr %shapedPaymentTime_, align 8, !tbaa !251
  %fneg = fneg double %0
  %mul = fmul double %x, %fneg
  %call = tail call double @exp(double noundef %mul) #35, !tbaa !58
  %discountRatio_ = getelementptr inbounds nuw i8, ptr %this, i64 104
  %1 = load double, ptr %discountRatio_, align 8, !tbaa !252
  %_M_finish.i.i = getelementptr inbounds nuw i8, ptr %this, i64 32
  %2 = load ptr, ptr %_M_finish.i.i, align 8, !tbaa !3
  %add.ptr.i.i = getelementptr inbounds i8, ptr %2, i64 -8
  %3 = load double, ptr %add.ptr.i.i, align 8, !tbaa !240
  %fneg3 = fneg double %3
  %mul4 = fmul double %x, %fneg3
  %call5 = tail call double @exp(double noundef %mul4) #35, !tbaa !58
  %neg = fneg double %1
  %4 = tail call double @llvm.fmuladd.f64(double %neg, double %call5, double 1.000000e+00)
  %div = fdiv double %call, %4
  ret double %div
}